target datalayout = "e-m:e-p270:32:32-p271:32:32-p272:64:64-i64:64-i128:128-f80:128-n8:16:32:64-S128"
target triple = "x86_64-pc-linux-gnu"

%struct._timelib_time = type { i64, i64, i64, i64, i64, i64, i64, i32, ptr, ptr, i32, %struct._timelib_rel_time, i64, i32, i32, i32, i32, i32, i32, i32, i32, i32 }
%struct._timelib_rel_time = type { i64, i64, i64, i64, i64, i64, i64, i32, i32, i32, i32, i64, %struct.anon, i32, i32 }
%struct.anon = type { i32, i64 }

; Function Attrs: nounwind uwtable
define hidden void @timelib_set_timezone_from_offset(ptr noundef %0, i64 noundef %1) #0 {
  %3 = alloca ptr, align 8
  %4 = alloca i64, align 8
  store ptr %0, ptr %3, align 8, !tbaa !11
  store i64 %1, ptr %4, align 8, !tbaa !4
  %5 = load ptr, ptr %3, align 8, !tbaa !11
  %6 = getelementptr inbounds nuw %struct._timelib_time, ptr %5, i32 0, i32 8
  %7 = load ptr, ptr %6, align 8, !tbaa !39
  %8 = icmp ne ptr %7, null
  br i1 %8, label %9, label %13

9:                                                ; preds = %2
  %10 = load ptr, ptr %3, align 8, !tbaa !11
  %11 = getelementptr inbounds nuw %struct._timelib_time, ptr %10, i32 0, i32 8
  %12 = load ptr, ptr %11, align 8, !tbaa !39
  call void @_efree(ptr noundef %12)
  br label %13

13:                                               ; preds = %9, %2
  %14 = load ptr, ptr %3, align 8, !tbaa !11
  %15 = getelementptr inbounds nuw %struct._timelib_time, ptr %14, i32 0, i32 8
  store ptr null, ptr %15, align 8, !tbaa !39
  %16 = load i64, ptr %4, align 8, !tbaa !4
  %17 = trunc i64 %16 to i32
  %18 = load ptr, ptr %3, align 8, !tbaa !11
  %19 = getelementptr inbounds nuw %struct._timelib_time, ptr %18, i32 0, i32 7
  store i32 %17, ptr %19, align 8, !tbaa !22
  %20 = load ptr, ptr %3, align 8, !tbaa !11
  %21 = getelementptr inbounds nuw %struct._timelib_time, ptr %20, i32 0, i32 15
  store i32 1, ptr %21, align 8, !tbaa !31
  %22 = load ptr, ptr %3, align 8, !tbaa !11
  %23 = getelementptr inbounds nuw %struct._timelib_time, ptr %22, i32 0, i32 21
  store i32 1, ptr %23, align 8, !tbaa !29
  %24 = load ptr, ptr %3, align 8, !tbaa !11
  %25 = getelementptr inbounds nuw %struct._timelib_time, ptr %24, i32 0, i32 10
  store i32 0, ptr %25, align 8, !tbaa !23
  %26 = load ptr, ptr %3, align 8, !tbaa !11
  %27 = getelementptr inbounds nuw %struct._timelib_time, ptr %26, i32 0, i32 9
  store ptr null, ptr %27, align 8, !tbaa !30
  ret void
}