; Function Attrs: nounwind uwtable
define hidden void @timelib_set_timezone_from_offset(ptr noundef captures(none) initializes((56, 60), (72, 84), (208, 212), (232, 236)) %0, i64 noundef %1) local_unnamed_addr #3 {
  %3 = getelementptr inbounds nuw i8, ptr %0, i64 64
  %4 = load ptr, ptr %3, align 8, !tbaa !32
  %.not = icmp eq ptr %4, null
  br i1 %.not, label %6, label %5

5:                                                ; preds = %2
  tail call void @_efree(ptr noundef nonnull %4) #5
  br label %6

6:                                                ; preds = %5, %2
  store ptr null, ptr %3, align 8, !tbaa !32
  %7 = trunc i64 %1 to i32
  %8 = getelementptr inbounds nuw i8, ptr %0, i64 56
  store i32 %7, ptr %8, align 8, !tbaa !18
  %9 = getelementptr inbounds nuw i8, ptr %0, i64 208
  store i32 1, ptr %9, align 8, !tbaa !27
  %10 = getelementptr inbounds nuw i8, ptr %0, i64 232
  store i32 1, ptr %10, align 8, !tbaa !24
  %11 = getelementptr inbounds nuw i8, ptr %0, i64 80
  store i32 0, ptr %11, align 8, !tbaa !19
  %12 = getelementptr inbounds nuw i8, ptr %0, i64 72
  store ptr null, ptr %12, align 8, !tbaa !26
  ret void
}